target datalayout = "e-m:e-p270:32:32-p271:32:32-p272:64:64-i64:64-i128:128-f80:128-n8:16:32:64-S128"
target triple = "x86_64-pc-linux-gnu"

%"struct.base::ThreadLocalStorage::StaticSlot" = type { i32, i32 }
%"class.base::trace_event::AllocationContextTracker" = type <{ %"class.std::vector", ptr, %"class.std::vector.0", i32, [4 x i8] }>
%"class.std::vector" = type { %"struct.std::_Vector_base" }
%"struct.std::_Vector_base" = type { %"struct.std::_Vector_base<base::trace_event::AllocationContextTracker::PseudoStackFrame, std::allocator<base::trace_event::AllocationContextTracker::PseudoStackFrame>>::_Vector_impl" }
%"struct.std::_Vector_base<base::trace_event::AllocationContextTracker::PseudoStackFrame, std::allocator<base::trace_event::AllocationContextTracker::PseudoStackFrame>>::_Vector_impl" = type { %"struct.std::_Vector_base<base::trace_event::AllocationContextTracker::PseudoStackFrame, std::allocator<base::trace_event::AllocationContextTracker::PseudoStackFrame>>::_Vector_impl_data" }
%"struct.std::_Vector_base<base::trace_event::AllocationContextTracker::PseudoStackFrame, std::allocator<base::trace_event::AllocationContextTracker::PseudoStackFrame>>::_Vector_impl_data" = type { ptr, ptr, ptr }
%"class.std::vector.0" = type { %"struct.std::_Vector_base.1" }
%"struct.std::_Vector_base.1" = type { %"struct.std::_Vector_base<const char *, std::allocator<const char *>>::_Vector_impl" }
%"struct.std::_Vector_base<const char *, std::allocator<const char *>>::_Vector_impl" = type { %"struct.std::_Vector_base<const char *, std::allocator<const char *>>::_Vector_impl_data" }
%"struct.std::_Vector_base<const char *, std::allocator<const char *>>::_Vector_impl_data" = type { ptr, ptr, ptr }
%"struct.std::__atomic_base" = type { i32 }

@_ZN4base11trace_event24AllocationContextTracker13capture_mode_E = global i32 0, align 4
@_ZN4base11trace_event12_GLOBAL__N_123g_tls_alloc_ctx_trackerE = internal global %"struct.base::ThreadLocalStorage::StaticSlot" zeroinitializer, align 4
@_ZN4base11trace_event24AllocationContextTrackerC1Ev = unnamed_addr alias void (ptr), ptr @_ZN4base11trace_event24AllocationContextTrackerC2Ev

; Function Attrs: noinline noreturn nounwind uwtable
define linkonce_odr hidden void @__clang_call_terminate(ptr noundef %0) #11 comdat {
  %2 = call ptr @__cxa_begin_catch(ptr %0) #14
  call void @_ZSt9terminatev() #18
  unreachable
}

; Function Attrs: mustprogress nounwind uwtable
define linkonce_odr noundef i32 @_ZStanSt12memory_orderSt23__memory_order_modifier(i32 noundef %0, i32 noundef %1) #5 comdat {
  %3 = alloca i32, align 4
  %4 = alloca i32, align 4
  store i32 %0, ptr %3, align 4, !tbaa !101
  store i32 %1, ptr %4, align 4, !tbaa !103
  %5 = load i32, ptr %3, align 4, !tbaa !101
  %6 = load i32, ptr %4, align 4, !tbaa !103
  %7 = and i32 %5, %6
  ret i32 %7
}

; Function Attrs: alwaysinline mustprogress nounwind uwtable
define linkonce_odr noundef i32 @_ZNVKSt13__atomic_baseIiE4loadESt12memory_order(ptr noundef nonnull align 4 dereferenceable(4) %0, i32 noundef %1) #10 comdat align 2 personality ptr @__gxx_personality_v0 {
  %3 = alloca ptr, align 8
  %4 = alloca i32, align 4
  %5 = alloca i32, align 4
  %6 = alloca i32, align 4
  store ptr %0, ptr %3, align 8, !tbaa !99
  store i32 %1, ptr %4, align 4, !tbaa !101
  %7 = load ptr, ptr %3, align 8
  call void @llvm.lifetime.start.p0(i64 4, ptr %5) #14
  %8 = load i32, ptr %4, align 4, !tbaa !101
  %9 = invoke noundef i32 @_ZStanSt12memory_orderSt23__memory_order_modifier(i32 noundef %8, i32 noundef 65535)
          to label %10 unwind label %27

10:                                               ; preds = %2
  store i32 %9, ptr %5, align 4, !tbaa !101
  br label %11

11:                                               ; preds = %10
  br label %12

12:                                               ; preds = %11
  br label %13

13:                                               ; preds = %12
  br label %14

14:                                               ; preds = %13
  br label %15

15:                                               ; preds = %14
  br label %16

16:                                               ; preds = %15
  %17 = getelementptr inbounds nuw %"struct.std::__atomic_base", ptr %7, i32 0, i32 0
  %18 = load i32, ptr %4, align 4, !tbaa !101
  switch i32 %18, label %19 [
    i32 1, label %21
    i32 2, label %21
    i32 5, label %23
  ]

19:                                               ; preds = %16
  %20 = load atomic volatile i32, ptr %17 monotonic, align 4
  store i32 %20, ptr %6, align 4
  br label %25

21:                                               ; preds = %16, %16
  %22 = load atomic volatile i32, ptr %17 acquire, align 4
  store i32 %22, ptr %6, align 4
  br label %25

23:                                               ; preds = %16
  %24 = load atomic volatile i32, ptr %17 seq_cst, align 4
  store i32 %24, ptr %6, align 4
  br label %25

25:                                               ; preds = %23, %21, %19
  %26 = load i32, ptr %6, align 4, !tbaa !45
  call void @llvm.lifetime.end.p0(i64 4, ptr %5) #14
  ret i32 %26

27:                                               ; preds = %2
  %28 = landingpad { ptr, i32 }
          catch ptr null
  %29 = extractvalue { ptr, i32 } %28, 0
  call void @__clang_call_terminate(ptr %29) #18
  unreachable
}

; Function Attrs: inlinehint mustprogress nounwind uwtable
define linkonce_odr noundef i32 @_ZN4base6subtle12Acquire_LoadEPVKi(ptr noundef %0) #7 comdat {
  %2 = alloca ptr, align 8
  store ptr %0, ptr %2, align 8, !tbaa !43
  %3 = load ptr, ptr %2, align 8, !tbaa !43
  %4 = call noundef i32 @_ZNVKSt13__atomic_baseIiE4loadESt12memory_order(ptr noundef nonnull align 4 dereferenceable(4) %3, i32 noundef 2) #14
  ret i32 %4
}

; Function Attrs: inlinehint mustprogress nounwind uwtable
define linkonce_odr noundef i32 @_ZN4base6subtle14NoBarrier_LoadEPVKi(ptr noundef %0) #7 comdat {
  %2 = alloca ptr, align 8
  store ptr %0, ptr %2, align 8, !tbaa !43
  %3 = load ptr, ptr %2, align 8, !tbaa !43
  %4 = call noundef i32 @_ZNVKSt13__atomic_baseIiE4loadESt12memory_order(ptr noundef nonnull align 4 dereferenceable(4) %3, i32 noundef 0) #14
  ret i32 %4
}

; Function Attrs: mustprogress uwtable
define noundef ptr @_ZN4base11trace_event24AllocationContextTracker27GetInstanceForCurrentThreadEv() #0 align 2 personality ptr @__gxx_personality_v0 {
  %1 = alloca ptr, align 8
  %2 = alloca ptr, align 8
  %3 = alloca i32, align 4
  %4 = alloca ptr, align 8
  %5 = alloca i32, align 4
  call void @llvm.lifetime.start.p0(i64 8, ptr %2) #14
  %6 = call noundef ptr @_ZNK4base18ThreadLocalStorage10StaticSlot3GetEv(ptr noundef nonnull align 4 dereferenceable(8) @_ZN4base11trace_event12_GLOBAL__N_123g_tls_alloc_ctx_trackerE)
  store ptr %6, ptr %2, align 8, !tbaa !3
  %7 = load ptr, ptr %2, align 8, !tbaa !3
  %8 = icmp eq ptr %7, inttoptr (i64 -1 to ptr)
  br i1 %8, label %9, label %10

9:                                                ; preds = %0
  store ptr null, ptr %1, align 8
  store i32 1, ptr %3, align 4
  br label %23

10:                                               ; preds = %0
  %11 = load ptr, ptr %2, align 8, !tbaa !3
  %12 = icmp ne ptr %11, null
  br i1 %12, label %21, label %13

13:                                               ; preds = %10
  call void @_ZN4base18ThreadLocalStorage10StaticSlot3SetEPv(ptr noundef nonnull align 4 dereferenceable(8) @_ZN4base11trace_event12_GLOBAL__N_123g_tls_alloc_ctx_trackerE, ptr noundef inttoptr (i64 -1 to ptr))
  %14 = call noalias noundef nonnull ptr @_Znwm(i64 noundef 64) #15
  invoke void @_ZN4base11trace_event24AllocationContextTrackerC1Ev(ptr noundef nonnull align 8 dereferenceable(60) %14)
          to label %15 unwind label %17

15:                                               ; preds = %13
  store ptr %14, ptr %2, align 8, !tbaa !3
  %16 = load ptr, ptr %2, align 8, !tbaa !3
  call void @_ZN4base18ThreadLocalStorage10StaticSlot3SetEPv(ptr noundef nonnull align 4 dereferenceable(8) @_ZN4base11trace_event12_GLOBAL__N_123g_tls_alloc_ctx_trackerE, ptr noundef %16)
  br label %21

17:                                               ; preds = %13
  %18 = landingpad { ptr, i32 }
          cleanup
  %19 = extractvalue { ptr, i32 } %18, 0
  store ptr %19, ptr %4, align 8
  %20 = extractvalue { ptr, i32 } %18, 1
  store i32 %20, ptr %5, align 4
  call void @_ZdlPv(ptr noundef %14) #16
  call void @llvm.lifetime.end.p0(i64 8, ptr %2) #14
  br label %25

21:                                               ; preds = %15, %10
  %22 = load ptr, ptr %2, align 8, !tbaa !3
  store ptr %22, ptr %1, align 8
  store i32 1, ptr %3, align 4
  br label %23

23:                                               ; preds = %21, %9
  call void @llvm.lifetime.end.p0(i64 8, ptr %2) #14
  %24 = load ptr, ptr %1, align 8
  ret ptr %24

25:                                               ; preds = %17
  %26 = load ptr, ptr %4, align 8
  %27 = load i32, ptr %5, align 4
  %28 = insertvalue { ptr, i32 } poison, ptr %26, 0
  %29 = insertvalue { ptr, i32 } %28, i32 %27, 1
  resume { ptr, i32 } %29
}

; Function Attrs: inlinehint mustprogress uwtable
define linkonce_odr noundef i32 @_ZN4base11trace_event24AllocationContextTracker12capture_modeEv() #6 comdat align 2 {
  %1 = alloca i32, align 4
  %2 = call noundef i32 @_ZN4base6subtle14NoBarrier_LoadEPVKi(ptr noundef @_ZN4base11trace_event24AllocationContextTracker13capture_mode_E)
  %3 = icmp eq i32 %2, 0
  br i1 %3, label %4, label %5

4:                                                ; preds = %0
  store i32 0, ptr %1, align 4
  br label %7

5:                                                ; preds = %0
  %6 = call noundef i32 @_ZN4base6subtle12Acquire_LoadEPVKi(ptr noundef @_ZN4base11trace_event24AllocationContextTracker13capture_mode_E)
  store i32 %6, ptr %1, align 4
  br label %7

7:                                                ; preds = %5, %4
  %8 = load i32, ptr %1, align 4
  ret i32 %8
}

; Function Attrs: mustprogress uwtable
define void @_ZN4base11trace_event24AllocationContextTracker20SetCurrentThreadNameEPKc(ptr noundef %0) #0 align 2 {
  %2 = alloca ptr, align 8
  store ptr %0, ptr %2, align 8, !tbaa !37
  %3 = load ptr, ptr %2, align 8, !tbaa !37
  %4 = icmp ne ptr %3, null
  br i1 %4, label %5, label %12

5:                                                ; preds = %1
  %6 = call noundef i32 @_ZN4base11trace_event24AllocationContextTracker12capture_modeEv()
  %7 = icmp ne i32 %6, 0
  br i1 %7, label %8, label %12

8:                                                ; preds = %5
  %9 = load ptr, ptr %2, align 8, !tbaa !37
  %10 = call noundef ptr @_ZN4base11trace_event24AllocationContextTracker27GetInstanceForCurrentThreadEv()
  %11 = getelementptr inbounds nuw %"class.base::trace_event::AllocationContextTracker", ptr %10, i32 0, i32 1
  store ptr %9, ptr %11, align 8, !tbaa !8
  br label %12

12:                                               ; preds = %8, %5, %1
  ret void
}