; Function Attrs: mustprogress uwtable
define void @_ZN4base11trace_event24AllocationContextTracker20SetCurrentThreadNameEPKc(ptr noundef %0) local_unnamed_addr #0 align 2 personality ptr @__gxx_personality_v0 {
  %.not = icmp eq ptr %0, null
  br i1 %.not, label %_ZN4base11trace_event24AllocationContextTracker12capture_modeEv.exit.thread, label %2

2:                                                ; preds = %1
  %3 = load atomic volatile i32, ptr @_ZN4base11trace_event24AllocationContextTracker13capture_mode_E monotonic, align 4
  %4 = icmp eq i32 %3, 0
  br i1 %4, label %_ZN4base11trace_event24AllocationContextTracker12capture_modeEv.exit.thread, label %_ZN4base11trace_event24AllocationContextTracker12capture_modeEv.exit

_ZN4base11trace_event24AllocationContextTracker12capture_modeEv.exit: ; preds = %2
  %5 = load atomic volatile i32, ptr @_ZN4base11trace_event24AllocationContextTracker13capture_mode_E acquire, align 4
  %.not2 = icmp eq i32 %5, 0
  br i1 %.not2, label %_ZN4base11trace_event24AllocationContextTracker12capture_modeEv.exit.thread, label %6

6:                                                ; preds = %_ZN4base11trace_event24AllocationContextTracker12capture_modeEv.exit
  %7 = tail call noundef ptr @_ZNK4base18ThreadLocalStorage10StaticSlot3GetEv(ptr noundef nonnull align 4 dereferenceable(8) @_ZN4base11trace_event12_GLOBAL__N_123g_tls_alloc_ctx_trackerE)
  %cond = icmp eq ptr %7, null
  br i1 %cond, label %8, label %_ZN4base11trace_event24AllocationContextTracker27GetInstanceForCurrentThreadEv.exit

8:                                                ; preds = %6
  tail call void @_ZN4base18ThreadLocalStorage10StaticSlot3SetEPv(ptr noundef nonnull align 4 dereferenceable(8) @_ZN4base11trace_event12_GLOBAL__N_123g_tls_alloc_ctx_trackerE, ptr noundef nonnull inttoptr (i64 -1 to ptr))
  %9 = tail call noalias noundef nonnull dereferenceable(64) ptr @_Znwm(i64 noundef 64) #14
  invoke void @_ZN4base11trace_event24AllocationContextTrackerC1Ev(ptr noundef nonnull align 8 dereferenceable(60) %9)
          to label %10 unwind label %11

10:                                               ; preds = %8
  tail call void @_ZN4base18ThreadLocalStorage10StaticSlot3SetEPv(ptr noundef nonnull align 4 dereferenceable(8) @_ZN4base11trace_event12_GLOBAL__N_123g_tls_alloc_ctx_trackerE, ptr noundef nonnull %9)
  br label %_ZN4base11trace_event24AllocationContextTracker27GetInstanceForCurrentThreadEv.exit

11:                                               ; preds = %8
  %12 = landingpad { ptr, i32 }
          cleanup
  tail call void @_ZdlPv(ptr noundef nonnull %9) #15
  resume { ptr, i32 } %12

_ZN4base11trace_event24AllocationContextTracker27GetInstanceForCurrentThreadEv.exit: ; preds = %6, %10
  %.0.i3 = phi ptr [ %9, %10 ], [ %7, %6 ]
  %13 = getelementptr inbounds nuw i8, ptr %.0.i3, i64 24
  store ptr %0, ptr %13, align 8, !tbaa !16
  br label %_ZN4base11trace_event24AllocationContextTracker12capture_modeEv.exit.thread

_ZN4base11trace_event24AllocationContextTracker12capture_modeEv.exit.thread: ; preds = %2, %_ZN4base11trace_event24AllocationContextTracker27GetInstanceForCurrentThreadEv.exit, %_ZN4base11trace_event24AllocationContextTracker12capture_modeEv.exit, %1
  ret void
}